; Function Attrs: mustprogress uwtable
define noundef zeroext i1 @_ZN5Ipopt19Ma77SolverInterface15IncreaseQualityEv(ptr nocapture noundef nonnull align 8 dereferenceable(536) %0) unnamed_addr #6 align 2 {
  %2 = getelementptr inbounds i8, ptr %0, i64 240
  %3 = load double, ptr %2, align 8
  %4 = getelementptr inbounds i8, ptr %0, i64 368
  %5 = load double, ptr %4, align 8
  %6 = fcmp ult double %3, %5
  br i1 %6, label %7, label %22

7:                                                ; preds = %1
  %8 = getelementptr inbounds i8, ptr %0, i64 80
  store i8 1, ptr %8, align 8
  %9 = getelementptr inbounds i8, ptr %0, i64 16
  %10 = load ptr, ptr %9, align 8
  %11 = load ptr, ptr %10, align 8
  %12 = getelementptr inbounds i8, ptr %11, i64 16
  %13 = load ptr, ptr %12, align 8
  tail call void (ptr, i32, i32, ptr, ...) %13(ptr noundef nonnull align 8 dereferenceable(40) %10, i32 noundef 6, i32 noundef 7, ptr noundef nonnull @.str.59, double noundef %3)
  %14 = load double, ptr %4, align 8
  %15 = load double, ptr %2, align 8
  %16 = tail call double @pow(double noundef %15, double noundef 7.500000e-01) #14
  %17 = fcmp olt double %16, %14
  %.sroa.speculated.i = select i1 %17, double %16, double %14
  store double %.sroa.speculated.i, ptr %2, align 8
  %18 = load ptr, ptr %9, align 8
  %19 = load ptr, ptr %18, align 8
  %20 = getelementptr inbounds i8, ptr %19, i64 16
  %21 = load ptr, ptr %20, align 8
  tail call void (ptr, i32, i32, ptr, ...) %21(ptr noundef nonnull align 8 dereferenceable(40) %18, i32 noundef 6, i32 noundef 7, ptr noundef nonnull @.str.60, double noundef %.sroa.speculated.i)
  br label %22

22:                                               ; preds = %1, %7
  ret i1 %6
}